; ModuleID = '2/702.c'
source_filename = "2/702.c"
target datalayout = "e-m:e-p270:32:32-p271:32:32-p272:64:64-i64:64-f80:128-n8:16:32:64-S128"
target triple = "x86_64-pc-linux-gnu"

@.str = private unnamed_addr constant [3 x i8] c"%d\00", align 1
@.str.1 = private unnamed_addr constant [5 x i8] c"%d%s\00", align 1
@.str.2 = private unnamed_addr constant [4 x i8] c"%c\0A\00", align 1
@.str.3 = private unnamed_addr constant [4 x i8] c"%d\0A\00", align 1

; Function Attrs: noinline nounwind uwtable
define dso_local i32 @main() #0 {
  %1 = alloca i32, align 4
  %2 = alloca [26 x [999 x i32]], align 16
  %3 = alloca i32, align 4
  %4 = alloca i32, align 4
  %5 = alloca [26 x i32], align 16
  %6 = alloca i32, align 4
  %7 = alloca i32, align 4
  %8 = alloca i32, align 4
  %9 = alloca [27 x i8], align 16
  store i32 0, i32* %1, align 4
  store i32 0, i32* %8, align 4
  %10 = call i32 (i8*, ...) @__isoc99_scanf(i8* getelementptr inbounds ([3 x i8], [3 x i8]* @.str, i64 0, i64 0), i32* %3)
  store i32 0, i32* %4, align 4
  br label %11

11:                                               ; preds = %18, %0
  %12 = load i32, i32* %4, align 4
  %13 = icmp slt i32 %12, 26
  br i1 %13, label %14, label %21

14:                                               ; preds = %11
  %15 = load i32, i32* %4, align 4
  %16 = sext i32 %15 to i64
  %17 = getelementptr inbounds [26 x i32], [26 x i32]* %5, i64 0, i64 %16
  store i32 0, i32* %17, align 4
  br label %18

18:                                               ; preds = %14
  %19 = load i32, i32* %4, align 4
  %20 = add nsw i32 %19, 1
  store i32 %20, i32* %4, align 4
  br label %11

21:                                               ; preds = %11
  store i32 0, i32* %4, align 4
  br label %22

22:                                               ; preds = %71, %21
  %23 = load i32, i32* %4, align 4
  %24 = load i32, i32* %3, align 4
  %25 = icmp slt i32 %23, %24
  br i1 %25, label %26, label %74

26:                                               ; preds = %22
  %27 = getelementptr inbounds [27 x i8], [27 x i8]* %9, i64 0, i64 0
  %28 = call i32 (i8*, ...) @__isoc99_scanf(i8* getelementptr inbounds ([5 x i8], [5 x i8]* @.str.1, i64 0, i64 0), i32* %6, i8* %27)
  store i32 0, i32* %7, align 4
  br label %29

29:                                               ; preds = %67, %26
  %30 = load i32, i32* %7, align 4
  %31 = sext i32 %30 to i64
  %32 = getelementptr inbounds [27 x i8], [27 x i8]* %9, i64 0, i64 %31
  %33 = load i8, i8* %32, align 1
  %34 = sext i8 %33 to i32
  %35 = icmp ne i32 %34, 0
  br i1 %35, label %36, label %70

36:                                               ; preds = %29
  %37 = load i32, i32* %6, align 4
  %38 = load i32, i32* %7, align 4
  %39 = sext i32 %38 to i64
  %40 = getelementptr inbounds [27 x i8], [27 x i8]* %9, i64 0, i64 %39
  %41 = load i8, i8* %40, align 1
  %42 = sext i8 %41 to i32
  %43 = sub nsw i32 %42, 65
  %44 = sext i32 %43 to i64
  %45 = getelementptr inbounds [26 x [999 x i32]], [26 x [999 x i32]]* %2, i64 0, i64 %44
  %46 = load i32, i32* %7, align 4
  %47 = sext i32 %46 to i64
  %48 = getelementptr inbounds [27 x i8], [27 x i8]* %9, i64 0, i64 %47
  %49 = load i8, i8* %48, align 1
  %50 = sext i8 %49 to i32
  %51 = sub nsw i32 %50, 65
  %52 = sext i32 %51 to i64
  %53 = getelementptr inbounds [26 x i32], [26 x i32]* %5, i64 0, i64 %52
  %54 = load i32, i32* %53, align 4
  %55 = sext i32 %54 to i64
  %56 = getelementptr inbounds [999 x i32], [999 x i32]* %45, i64 0, i64 %55
  store i32 %37, i32* %56, align 4
  %57 = load i32, i32* %7, align 4
  %58 = sext i32 %57 to i64
  %59 = getelementptr inbounds [27 x i8], [27 x i8]* %9, i64 0, i64 %58
  %60 = load i8, i8* %59, align 1
  %61 = sext i8 %60 to i32
  %62 = sub nsw i32 %61, 65
  %63 = sext i32 %62 to i64
  %64 = getelementptr inbounds [26 x i32], [26 x i32]* %5, i64 0, i64 %63
  %65 = load i32, i32* %64, align 4
  %66 = add nsw i32 %65, 1
  store i32 %66, i32* %64, align 4
  br label %67

67:                                               ; preds = %36
  %68 = load i32, i32* %7, align 4
  %69 = add nsw i32 %68, 1
  store i32 %69, i32* %7, align 4
  br label %29

70:                                               ; preds = %29
  br label %71

71:                                               ; preds = %70
  %72 = load i32, i32* %4, align 4
  %73 = add nsw i32 %72, 1
  store i32 %73, i32* %4, align 4
  br label %22

74:                                               ; preds = %22
  store i32 0, i32* %4, align 4
  br label %75

75:                                               ; preds = %92, %74
  %76 = load i32, i32* %4, align 4
  %77 = icmp slt i32 %76, 26
  br i1 %77, label %78, label %95

78:                                               ; preds = %75
  %79 = load i32, i32* %4, align 4
  %80 = sext i32 %79 to i64
  %81 = getelementptr inbounds [26 x i32], [26 x i32]* %5, i64 0, i64 %80
  %82 = load i32, i32* %81, align 4
  %83 = load i32, i32* %8, align 4
  %84 = icmp sgt i32 %82, %83
  br i1 %84, label %85, label %91

85:                                               ; preds = %78
  %86 = load i32, i32* %4, align 4
  %87 = sext i32 %86 to i64
  %88 = getelementptr inbounds [26 x i32], [26 x i32]* %5, i64 0, i64 %87
  %89 = load i32, i32* %88, align 4
  store i32 %89, i32* %8, align 4
  %90 = load i32, i32* %4, align 4
  store i32 %90, i32* %7, align 4
  br label %91

91:                                               ; preds = %85, %78
  br label %92

92:                                               ; preds = %91
  %93 = load i32, i32* %4, align 4
  %94 = add nsw i32 %93, 1
  store i32 %94, i32* %4, align 4
  br label %75

95:                                               ; preds = %75
  %96 = load i32, i32* %7, align 4
  %97 = add nsw i32 %96, 65
  %98 = call i32 (i8*, ...) @printf(i8* getelementptr inbounds ([4 x i8], [4 x i8]* @.str.2, i64 0, i64 0), i32 %97)
  %99 = load i32, i32* %7, align 4
  %100 = sext i32 %99 to i64
  %101 = getelementptr inbounds [26 x i32], [26 x i32]* %5, i64 0, i64 %100
  %102 = load i32, i32* %101, align 4
  %103 = call i32 (i8*, ...) @printf(i8* getelementptr inbounds ([4 x i8], [4 x i8]* @.str.3, i64 0, i64 0), i32 %102)
  store i32 0, i32* %4, align 4
  br label %104

104:                                              ; preds = %120, %95
  %105 = load i32, i32* %4, align 4
  %106 = load i32, i32* %7, align 4
  %107 = sext i32 %106 to i64
  %108 = getelementptr inbounds [26 x i32], [26 x i32]* %5, i64 0, i64 %107
  %109 = load i32, i32* %108, align 4
  %110 = icmp slt i32 %105, %109
  br i1 %110, label %111, label %123

111:                                              ; preds = %104
  %112 = load i32, i32* %7, align 4
  %113 = sext i32 %112 to i64
  %114 = getelementptr inbounds [26 x [999 x i32]], [26 x [999 x i32]]* %2, i64 0, i64 %113
  %115 = load i32, i32* %4, align 4
  %116 = sext i32 %115 to i64
  %117 = getelementptr inbounds [999 x i32], [999 x i32]* %114, i64 0, i64 %116
  %118 = load i32, i32* %117, align 4
  %119 = call i32 (i8*, ...) @printf(i8* getelementptr inbounds ([4 x i8], [4 x i8]* @.str.3, i64 0, i64 0), i32 %118)
  br label %120

120:                                              ; preds = %111
  %121 = load i32, i32* %4, align 4
  %122 = add nsw i32 %121, 1
  store i32 %122, i32* %4, align 4
  br label %104

123:                                              ; preds = %104
  ret i32 0
}

declare dso_local i32 @__isoc99_scanf(i8*, ...) #1

declare dso_local i32 @printf(i8*, ...) #1


!llvm.module.flags = !{!0}
!llvm.ident = !{!1}

!0 = !{i32 1, !"wchar_size", i32 4}
!1 = !{!"clang version 10.0.0-4ubuntu1 "}
